
vecadd_cpu_v1:     file format elf64-x86-64


Disassembly of section .init:

0000000000000688 <_init>:
 688:	48 83 ec 08          	sub    $0x8,%rsp
 68c:	48 8b 05 55 19 20 00 	mov    0x201955(%rip),%rax        # 201fe8 <__gmon_start__>
 693:	48 85 c0             	test   %rax,%rax
 696:	74 02                	je     69a <_init+0x12>
 698:	ff d0                	callq  *%rax
 69a:	48 83 c4 08          	add    $0x8,%rsp
 69e:	c3                   	retq   

Disassembly of section .plt:

00000000000006a0 <.plt>:
 6a0:	ff 35 f2 18 20 00    	pushq  0x2018f2(%rip)        # 201f98 <_GLOBAL_OFFSET_TABLE_+0x8>
 6a6:	ff 25 f4 18 20 00    	jmpq   *0x2018f4(%rip)        # 201fa0 <_GLOBAL_OFFSET_TABLE_+0x10>
 6ac:	0f 1f 40 00          	nopl   0x0(%rax)

00000000000006b0 <_Znam@plt>:
 6b0:	ff 25 f2 18 20 00    	jmpq   *0x2018f2(%rip)        # 201fa8 <_Znam@GLIBCXX_3.4>
 6b6:	68 00 00 00 00       	pushq  $0x0
 6bb:	e9 e0 ff ff ff       	jmpq   6a0 <.plt>

00000000000006c0 <memset@plt>:
 6c0:	ff 25 ea 18 20 00    	jmpq   *0x2018ea(%rip)        # 201fb0 <memset@GLIBC_2.2.5>
 6c6:	68 01 00 00 00       	pushq  $0x1
 6cb:	e9 d0 ff ff ff       	jmpq   6a0 <.plt>

00000000000006d0 <__cxa_atexit@plt>:
 6d0:	ff 25 e2 18 20 00    	jmpq   *0x2018e2(%rip)        # 201fb8 <__cxa_atexit@GLIBC_2.2.5>
 6d6:	68 02 00 00 00       	pushq  $0x2
 6db:	e9 c0 ff ff ff       	jmpq   6a0 <.plt>

00000000000006e0 <_ZdaPv@plt>:
 6e0:	ff 25 da 18 20 00    	jmpq   *0x2018da(%rip)        # 201fc0 <_ZdaPv@GLIBCXX_3.4>
 6e6:	68 03 00 00 00       	pushq  $0x3
 6eb:	e9 b0 ff ff ff       	jmpq   6a0 <.plt>

00000000000006f0 <_ZNSt8ios_base4InitC1Ev@plt>:
 6f0:	ff 25 d2 18 20 00    	jmpq   *0x2018d2(%rip)        # 201fc8 <_ZNSt8ios_base4InitC1Ev@GLIBCXX_3.4>
 6f6:	68 04 00 00 00       	pushq  $0x4
 6fb:	e9 a0 ff ff ff       	jmpq   6a0 <.plt>

Disassembly of section .plt.got:

0000000000000700 <__cxa_finalize@plt>:
 700:	ff 25 ca 18 20 00    	jmpq   *0x2018ca(%rip)        # 201fd0 <__cxa_finalize@GLIBC_2.2.5>
 706:	66 90                	xchg   %ax,%ax

Disassembly of section .text:

0000000000000710 <main>:
 710:	41 57                	push   %r15
 712:	41 56                	push   %r14
 714:	bf 00 00 00 40       	mov    $0x40000000,%edi
 719:	41 55                	push   %r13
 71b:	41 54                	push   %r12
 71d:	55                   	push   %rbp
 71e:	53                   	push   %rbx
 71f:	48 83 ec 18          	sub    $0x18,%rsp
 723:	e8 88 ff ff ff       	callq  6b0 <_Znam@plt>
 728:	bf 00 00 00 40       	mov    $0x40000000,%edi
 72d:	49 89 c6             	mov    %rax,%r14
 730:	e8 7b ff ff ff       	callq  6b0 <_Znam@plt>
 735:	bf 00 00 00 40       	mov    $0x40000000,%edi
 73a:	49 89 c7             	mov    %rax,%r15
 73d:	e8 6e ff ff ff       	callq  6b0 <_Znam@plt>
 742:	4d 89 f2             	mov    %r14,%r10
 745:	48 89 c1             	mov    %rax,%rcx
 748:	49 c1 ea 02          	shr    $0x2,%r10
 74c:	49 f7 da             	neg    %r10
 74f:	41 83 e2 03          	and    $0x3,%r10d
 753:	0f 84 ce 02 00 00    	je     a27 <main+0x317>
 759:	41 83 fa 01          	cmp    $0x1,%r10d
 75d:	41 c7 06 00 00 00 00 	movl   $0x0,(%r14)
 764:	41 c7 07 00 00 7c 42 	movl   $0x427c0000,(%r15)
 76b:	0f 84 a5 02 00 00    	je     a16 <main+0x306>
 771:	41 83 fa 02          	cmp    $0x2,%r10d
 775:	41 c7 46 04 00 00 80 	movl   $0x3f800000,0x4(%r14)
 77c:	3f 
 77d:	41 c7 47 04 00 00 78 	movl   $0x42780000,0x4(%r15)
 784:	42 
 785:	0f 84 ad 02 00 00    	je     a38 <main+0x328>
 78b:	41 c7 46 08 00 00 00 	movl   $0x40000000,0x8(%r14)
 792:	40 
 793:	41 c7 47 08 00 00 74 	movl   $0x42740000,0x8(%r15)
 79a:	42 
 79b:	be fd ff ff 0f       	mov    $0xffffffd,%esi
 7a0:	c7 04 24 03 00 00 00 	movl   $0x3,(%rsp)
 7a7:	66 0f 6e 24 24       	movd   (%rsp),%xmm4
 7ac:	41 b8 00 00 00 10    	mov    $0x10000000,%r8d
 7b2:	45 89 d5             	mov    %r10d,%r13d
 7b5:	49 c1 e5 02          	shl    $0x2,%r13
 7b9:	45 29 d0             	sub    %r10d,%r8d
 7bc:	31 c0                	xor    %eax,%eax
 7be:	66 0f 70 c4 00       	pshufd $0x0,%xmm4,%xmm0
 7c3:	44 89 c3             	mov    %r8d,%ebx
 7c6:	4b 8d 2c 2e          	lea    (%r14,%r13,1),%rbp
 7ca:	4f 8d 24 2f          	lea    (%r15,%r13,1),%r12
 7ce:	c1 eb 02             	shr    $0x2,%ebx
 7d1:	66 0f 6f 1d 67 04 00 	movdqa 0x467(%rip),%xmm3        # c40 <_IO_stdin_used+0x20>
 7d8:	00 
 7d9:	31 d2                	xor    %edx,%edx
 7db:	66 0f fe 05 4d 04 00 	paddd  0x44d(%rip),%xmm0        # c30 <_IO_stdin_used+0x10>
 7e2:	00 
 7e3:	66 0f 6f 15 65 04 00 	movdqa 0x465(%rip),%xmm2        # c50 <_IO_stdin_used+0x30>
 7ea:	00 
 7eb:	0f 1f 44 00 00       	nopl   0x0(%rax,%rax,1)
 7f0:	66 0f 6f c8          	movdqa %xmm0,%xmm1
 7f4:	83 c2 01             	add    $0x1,%edx
 7f7:	66 0f db ca          	pand   %xmm2,%xmm1
 7fb:	0f 5b c9             	cvtdq2ps %xmm1,%xmm1
 7fe:	0f 29 4c 05 00       	movaps %xmm1,0x0(%rbp,%rax,1)
 803:	66 0f 6f c8          	movdqa %xmm0,%xmm1
 807:	66 0f fe c3          	paddd  %xmm3,%xmm0
 80b:	66 0f df ca          	pandn  %xmm2,%xmm1
 80f:	0f 5b c9             	cvtdq2ps %xmm1,%xmm1
 812:	41 0f 11 0c 04       	movups %xmm1,(%r12,%rax,1)
 817:	48 83 c0 10          	add    $0x10,%rax
 81b:	39 d3                	cmp    %edx,%ebx
 81d:	77 d1                	ja     7f0 <main+0xe0>
 81f:	8b 04 24             	mov    (%rsp),%eax
 822:	45 89 c1             	mov    %r8d,%r9d
 825:	41 83 e1 fc          	and    $0xfffffffc,%r9d
 829:	44 29 ce             	sub    %r9d,%esi
 82c:	44 01 c8             	add    %r9d,%eax
 82f:	45 39 c8             	cmp    %r9d,%r8d
 832:	0f 84 90 00 00 00    	je     8c8 <main+0x1b8>
 838:	66 0f ef c0          	pxor   %xmm0,%xmm0
 83c:	89 c2                	mov    %eax,%edx
 83e:	48 63 f8             	movslq %eax,%rdi
 841:	83 e2 3f             	and    $0x3f,%edx
 844:	f3 0f 2a c2          	cvtsi2ss %edx,%xmm0
 848:	89 c2                	mov    %eax,%edx
 84a:	f7 d2                	not    %edx
 84c:	83 e2 3f             	and    $0x3f,%edx
 84f:	83 fe 01             	cmp    $0x1,%esi
 852:	f3 41 0f 11 04 be    	movss  %xmm0,(%r14,%rdi,4)
 858:	66 0f ef c0          	pxor   %xmm0,%xmm0
 85c:	f3 0f 2a c2          	cvtsi2ss %edx,%xmm0
 860:	8d 50 01             	lea    0x1(%rax),%edx
 863:	f3 41 0f 11 04 bf    	movss  %xmm0,(%r15,%rdi,4)
 869:	74 5d                	je     8c8 <main+0x1b8>
 86b:	66 0f ef c0          	pxor   %xmm0,%xmm0
 86f:	41 89 d3             	mov    %edx,%r11d
 872:	48 63 fa             	movslq %edx,%rdi
 875:	41 83 e3 3f          	and    $0x3f,%r11d
 879:	f7 d2                	not    %edx
 87b:	83 c0 02             	add    $0x2,%eax
 87e:	83 e2 3f             	and    $0x3f,%edx
 881:	83 fe 02             	cmp    $0x2,%esi
 884:	f3 41 0f 2a c3       	cvtsi2ss %r11d,%xmm0
 889:	f3 41 0f 11 04 be    	movss  %xmm0,(%r14,%rdi,4)
 88f:	66 0f ef c0          	pxor   %xmm0,%xmm0
 893:	f3 0f 2a c2          	cvtsi2ss %edx,%xmm0
 897:	f3 41 0f 11 04 bf    	movss  %xmm0,(%r15,%rdi,4)
 89d:	74 29                	je     8c8 <main+0x1b8>
 89f:	66 0f ef c0          	pxor   %xmm0,%xmm0
 8a3:	89 c2                	mov    %eax,%edx
 8a5:	48 63 f0             	movslq %eax,%rsi
 8a8:	83 e2 3f             	and    $0x3f,%edx
 8ab:	f7 d0                	not    %eax
 8ad:	83 e0 3f             	and    $0x3f,%eax
 8b0:	f3 0f 2a c2          	cvtsi2ss %edx,%xmm0
 8b4:	f3 41 0f 11 04 b6    	movss  %xmm0,(%r14,%rsi,4)
 8ba:	66 0f ef c0          	pxor   %xmm0,%xmm0
 8be:	f3 0f 2a c0          	cvtsi2ss %eax,%xmm0
 8c2:	f3 41 0f 11 04 b7    	movss  %xmm0,(%r15,%rsi,4)
 8c8:	31 f6                	xor    %esi,%esi
 8ca:	48 89 cf             	mov    %rcx,%rdi
 8cd:	ba 00 00 00 40       	mov    $0x40000000,%edx
 8d2:	44 89 4c 24 0c       	mov    %r9d,0xc(%rsp)
 8d7:	44 89 44 24 08       	mov    %r8d,0x8(%rsp)
 8dc:	44 89 14 24          	mov    %r10d,(%rsp)
 8e0:	e8 db fd ff ff       	callq  6c0 <memset@plt>
 8e5:	44 8b 14 24          	mov    (%rsp),%r10d
 8e9:	48 89 c1             	mov    %rax,%rcx
 8ec:	44 8b 44 24 08       	mov    0x8(%rsp),%r8d
 8f1:	44 8b 4c 24 0c       	mov    0xc(%rsp),%r9d
 8f6:	45 85 d2             	test   %r10d,%r10d
 8f9:	0f 84 0b 01 00 00    	je     a0a <main+0x2fa>
 8ff:	f3 41 0f 10 06       	movss  (%r14),%xmm0
 904:	41 83 fa 01          	cmp    $0x1,%r10d
 908:	f3 41 0f 58 07       	addss  (%r15),%xmm0
 90d:	f3 0f 11 00          	movss  %xmm0,(%rax)
 911:	0f 84 e4 00 00 00    	je     9fb <main+0x2eb>
 917:	f3 41 0f 10 46 04    	movss  0x4(%r14),%xmm0
 91d:	41 83 fa 02          	cmp    $0x2,%r10d
 921:	f3 41 0f 58 47 04    	addss  0x4(%r15),%xmm0
 927:	f3 0f 11 40 04       	movss  %xmm0,0x4(%rax)
 92c:	0f 84 17 01 00 00    	je     a49 <main+0x339>
 932:	f3 41 0f 10 46 08    	movss  0x8(%r14),%xmm0
 938:	bf fd ff ff 0f       	mov    $0xffffffd,%edi
 93d:	be 03 00 00 00       	mov    $0x3,%esi
 942:	f3 41 0f 58 47 08    	addss  0x8(%r15),%xmm0
 948:	f3 0f 11 40 08       	movss  %xmm0,0x8(%rax)
 94d:	49 01 cd             	add    %rcx,%r13
 950:	31 c0                	xor    %eax,%eax
 952:	31 d2                	xor    %edx,%edx
 954:	0f 1f 40 00          	nopl   0x0(%rax)
 958:	83 c2 01             	add    $0x1,%edx
 95b:	41 0f 10 04 04       	movups (%r12,%rax,1),%xmm0
 960:	0f 58 44 05 00       	addps  0x0(%rbp,%rax,1),%xmm0
 965:	41 0f 11 44 05 00    	movups %xmm0,0x0(%r13,%rax,1)
 96b:	48 83 c0 10          	add    $0x10,%rax
 96f:	39 d3                	cmp    %edx,%ebx
 971:	77 e5                	ja     958 <main+0x248>
 973:	44 29 cf             	sub    %r9d,%edi
 976:	45 39 c8             	cmp    %r9d,%r8d
 979:	41 8d 04 31          	lea    (%r9,%rsi,1),%eax
 97d:	74 4b                	je     9ca <main+0x2ba>
 97f:	48 63 f0             	movslq %eax,%rsi
 982:	83 ff 01             	cmp    $0x1,%edi
 985:	f3 41 0f 10 04 b6    	movss  (%r14,%rsi,4),%xmm0
 98b:	f3 41 0f 58 04 b7    	addss  (%r15,%rsi,4),%xmm0
 991:	f3 0f 11 04 b1       	movss  %xmm0,(%rcx,%rsi,4)
 996:	8d 70 01             	lea    0x1(%rax),%esi
 999:	74 2f                	je     9ca <main+0x2ba>
 99b:	48 63 f6             	movslq %esi,%rsi
 99e:	83 c0 02             	add    $0x2,%eax
 9a1:	83 ff 02             	cmp    $0x2,%edi
 9a4:	f3 41 0f 10 04 b7    	movss  (%r15,%rsi,4),%xmm0
 9aa:	f3 41 0f 58 04 b6    	addss  (%r14,%rsi,4),%xmm0
 9b0:	f3 0f 11 04 b1       	movss  %xmm0,(%rcx,%rsi,4)
 9b5:	74 13                	je     9ca <main+0x2ba>
 9b7:	48 98                	cltq   
 9b9:	f3 41 0f 10 04 86    	movss  (%r14,%rax,4),%xmm0
 9bf:	f3 41 0f 58 04 87    	addss  (%r15,%rax,4),%xmm0
 9c5:	f3 0f 11 04 81       	movss  %xmm0,(%rcx,%rax,4)
 9ca:	4c 89 f7             	mov    %r14,%rdi
 9cd:	48 89 0c 24          	mov    %rcx,(%rsp)
 9d1:	e8 0a fd ff ff       	callq  6e0 <_ZdaPv@plt>
 9d6:	4c 89 ff             	mov    %r15,%rdi
 9d9:	e8 02 fd ff ff       	callq  6e0 <_ZdaPv@plt>
 9de:	48 8b 0c 24          	mov    (%rsp),%rcx
 9e2:	48 89 cf             	mov    %rcx,%rdi
 9e5:	e8 f6 fc ff ff       	callq  6e0 <_ZdaPv@plt>
 9ea:	48 83 c4 18          	add    $0x18,%rsp
 9ee:	31 c0                	xor    %eax,%eax
 9f0:	5b                   	pop    %rbx
 9f1:	5d                   	pop    %rbp
 9f2:	41 5c                	pop    %r12
 9f4:	41 5d                	pop    %r13
 9f6:	41 5e                	pop    %r14
 9f8:	41 5f                	pop    %r15
 9fa:	c3                   	retq   
 9fb:	bf ff ff ff 0f       	mov    $0xfffffff,%edi
 a00:	be 01 00 00 00       	mov    $0x1,%esi
 a05:	e9 43 ff ff ff       	jmpq   94d <main+0x23d>
 a0a:	bf 00 00 00 10       	mov    $0x10000000,%edi
 a0f:	31 f6                	xor    %esi,%esi
 a11:	e9 37 ff ff ff       	jmpq   94d <main+0x23d>
 a16:	be ff ff ff 0f       	mov    $0xfffffff,%esi
 a1b:	c7 04 24 01 00 00 00 	movl   $0x1,(%rsp)
 a22:	e9 80 fd ff ff       	jmpq   7a7 <main+0x97>
 a27:	be 00 00 00 10       	mov    $0x10000000,%esi
 a2c:	c7 04 24 00 00 00 00 	movl   $0x0,(%rsp)
 a33:	e9 6f fd ff ff       	jmpq   7a7 <main+0x97>
 a38:	be fe ff ff 0f       	mov    $0xffffffe,%esi
 a3d:	c7 04 24 02 00 00 00 	movl   $0x2,(%rsp)
 a44:	e9 5e fd ff ff       	jmpq   7a7 <main+0x97>
 a49:	bf fe ff ff 0f       	mov    $0xffffffe,%edi
 a4e:	be 02 00 00 00       	mov    $0x2,%esi
 a53:	e9 f5 fe ff ff       	jmpq   94d <main+0x23d>
 a58:	0f 1f 84 00 00 00 00 	nopl   0x0(%rax,%rax,1)
 a5f:	00 

0000000000000a60 <_GLOBAL__sub_I_main>:
 a60:	48 8d 3d aa 15 20 00 	lea    0x2015aa(%rip),%rdi        # 202011 <_ZStL8__ioinit>
 a67:	48 83 ec 08          	sub    $0x8,%rsp
 a6b:	e8 80 fc ff ff       	callq  6f0 <_ZNSt8ios_base4InitC1Ev@plt>
 a70:	48 8b 3d 81 15 20 00 	mov    0x201581(%rip),%rdi        # 201ff8 <_ZNSt8ios_base4InitD1Ev@GLIBCXX_3.4>
 a77:	48 8d 15 8a 15 20 00 	lea    0x20158a(%rip),%rdx        # 202008 <__dso_handle>
 a7e:	48 8d 35 8c 15 20 00 	lea    0x20158c(%rip),%rsi        # 202011 <_ZStL8__ioinit>
 a85:	48 83 c4 08          	add    $0x8,%rsp
 a89:	e9 42 fc ff ff       	jmpq   6d0 <__cxa_atexit@plt>
 a8e:	66 90                	xchg   %ax,%ax

0000000000000a90 <_start>:
 a90:	31 ed                	xor    %ebp,%ebp
 a92:	49 89 d1             	mov    %rdx,%r9
 a95:	5e                   	pop    %rsi
 a96:	48 89 e2             	mov    %rsp,%rdx
 a99:	48 83 e4 f0          	and    $0xfffffffffffffff0,%rsp
 a9d:	50                   	push   %rax
 a9e:	54                   	push   %rsp
 a9f:	4c 8d 05 6a 01 00 00 	lea    0x16a(%rip),%r8        # c10 <__libc_csu_fini>
 aa6:	48 8d 0d f3 00 00 00 	lea    0xf3(%rip),%rcx        # ba0 <__libc_csu_init>
 aad:	48 8d 3d 5c fc ff ff 	lea    -0x3a4(%rip),%rdi        # 710 <main>
 ab4:	ff 15 26 15 20 00    	callq  *0x201526(%rip)        # 201fe0 <__libc_start_main@GLIBC_2.2.5>
 aba:	f4                   	hlt    
 abb:	0f 1f 44 00 00       	nopl   0x0(%rax,%rax,1)

0000000000000ac0 <deregister_tm_clones>:
 ac0:	48 8d 3d 49 15 20 00 	lea    0x201549(%rip),%rdi        # 202010 <__TMC_END__>
 ac7:	55                   	push   %rbp
 ac8:	48 8d 05 41 15 20 00 	lea    0x201541(%rip),%rax        # 202010 <__TMC_END__>
 acf:	48 39 f8             	cmp    %rdi,%rax
 ad2:	48 89 e5             	mov    %rsp,%rbp
 ad5:	74 19                	je     af0 <deregister_tm_clones+0x30>
 ad7:	48 8b 05 fa 14 20 00 	mov    0x2014fa(%rip),%rax        # 201fd8 <_ITM_deregisterTMCloneTable>
 ade:	48 85 c0             	test   %rax,%rax
 ae1:	74 0d                	je     af0 <deregister_tm_clones+0x30>
 ae3:	5d                   	pop    %rbp
 ae4:	ff e0                	jmpq   *%rax
 ae6:	66 2e 0f 1f 84 00 00 	nopw   %cs:0x0(%rax,%rax,1)
 aed:	00 00 00 
 af0:	5d                   	pop    %rbp
 af1:	c3                   	retq   
 af2:	0f 1f 40 00          	nopl   0x0(%rax)
 af6:	66 2e 0f 1f 84 00 00 	nopw   %cs:0x0(%rax,%rax,1)
 afd:	00 00 00 

0000000000000b00 <register_tm_clones>:
 b00:	48 8d 3d 09 15 20 00 	lea    0x201509(%rip),%rdi        # 202010 <__TMC_END__>
 b07:	48 8d 35 02 15 20 00 	lea    0x201502(%rip),%rsi        # 202010 <__TMC_END__>
 b0e:	55                   	push   %rbp
 b0f:	48 29 fe             	sub    %rdi,%rsi
 b12:	48 89 e5             	mov    %rsp,%rbp
 b15:	48 c1 fe 03          	sar    $0x3,%rsi
 b19:	48 89 f0             	mov    %rsi,%rax
 b1c:	48 c1 e8 3f          	shr    $0x3f,%rax
 b20:	48 01 c6             	add    %rax,%rsi
 b23:	48 d1 fe             	sar    %rsi
 b26:	74 18                	je     b40 <register_tm_clones+0x40>
 b28:	48 8b 05 c1 14 20 00 	mov    0x2014c1(%rip),%rax        # 201ff0 <_ITM_registerTMCloneTable>
 b2f:	48 85 c0             	test   %rax,%rax
 b32:	74 0c                	je     b40 <register_tm_clones+0x40>
 b34:	5d                   	pop    %rbp
 b35:	ff e0                	jmpq   *%rax
 b37:	66 0f 1f 84 00 00 00 	nopw   0x0(%rax,%rax,1)
 b3e:	00 00 
 b40:	5d                   	pop    %rbp
 b41:	c3                   	retq   
 b42:	0f 1f 40 00          	nopl   0x0(%rax)
 b46:	66 2e 0f 1f 84 00 00 	nopw   %cs:0x0(%rax,%rax,1)
 b4d:	00 00 00 

0000000000000b50 <__do_global_dtors_aux>:
 b50:	80 3d b9 14 20 00 00 	cmpb   $0x0,0x2014b9(%rip)        # 202010 <__TMC_END__>
 b57:	75 2f                	jne    b88 <__do_global_dtors_aux+0x38>
 b59:	48 83 3d 6f 14 20 00 	cmpq   $0x0,0x20146f(%rip)        # 201fd0 <__cxa_finalize@GLIBC_2.2.5>
 b60:	00 
 b61:	55                   	push   %rbp
 b62:	48 89 e5             	mov    %rsp,%rbp
 b65:	74 0c                	je     b73 <__do_global_dtors_aux+0x23>
 b67:	48 8b 3d 9a 14 20 00 	mov    0x20149a(%rip),%rdi        # 202008 <__dso_handle>
 b6e:	e8 8d fb ff ff       	callq  700 <__cxa_finalize@plt>
 b73:	e8 48 ff ff ff       	callq  ac0 <deregister_tm_clones>
 b78:	c6 05 91 14 20 00 01 	movb   $0x1,0x201491(%rip)        # 202010 <__TMC_END__>
 b7f:	5d                   	pop    %rbp
 b80:	c3                   	retq   
 b81:	0f 1f 80 00 00 00 00 	nopl   0x0(%rax)
 b88:	f3 c3                	repz retq 
 b8a:	66 0f 1f 44 00 00    	nopw   0x0(%rax,%rax,1)

0000000000000b90 <frame_dummy>:
 b90:	55                   	push   %rbp
 b91:	48 89 e5             	mov    %rsp,%rbp
 b94:	5d                   	pop    %rbp
 b95:	e9 66 ff ff ff       	jmpq   b00 <register_tm_clones>
 b9a:	66 0f 1f 44 00 00    	nopw   0x0(%rax,%rax,1)

0000000000000ba0 <__libc_csu_init>:
 ba0:	41 57                	push   %r15
 ba2:	41 56                	push   %r14
 ba4:	49 89 d7             	mov    %rdx,%r15
 ba7:	41 55                	push   %r13
 ba9:	41 54                	push   %r12
 bab:	4c 8d 25 c6 11 20 00 	lea    0x2011c6(%rip),%r12        # 201d78 <__frame_dummy_init_array_entry>
 bb2:	55                   	push   %rbp
 bb3:	48 8d 2d ce 11 20 00 	lea    0x2011ce(%rip),%rbp        # 201d88 <__init_array_end>
 bba:	53                   	push   %rbx
 bbb:	41 89 fd             	mov    %edi,%r13d
 bbe:	49 89 f6             	mov    %rsi,%r14
 bc1:	4c 29 e5             	sub    %r12,%rbp
 bc4:	48 83 ec 08          	sub    $0x8,%rsp
 bc8:	48 c1 fd 03          	sar    $0x3,%rbp
 bcc:	e8 b7 fa ff ff       	callq  688 <_init>
 bd1:	48 85 ed             	test   %rbp,%rbp
 bd4:	74 20                	je     bf6 <__libc_csu_init+0x56>
 bd6:	31 db                	xor    %ebx,%ebx
 bd8:	0f 1f 84 00 00 00 00 	nopl   0x0(%rax,%rax,1)
 bdf:	00 
 be0:	4c 89 fa             	mov    %r15,%rdx
 be3:	4c 89 f6             	mov    %r14,%rsi
 be6:	44 89 ef             	mov    %r13d,%edi
 be9:	41 ff 14 dc          	callq  *(%r12,%rbx,8)
 bed:	48 83 c3 01          	add    $0x1,%rbx
 bf1:	48 39 dd             	cmp    %rbx,%rbp
 bf4:	75 ea                	jne    be0 <__libc_csu_init+0x40>
 bf6:	48 83 c4 08          	add    $0x8,%rsp
 bfa:	5b                   	pop    %rbx
 bfb:	5d                   	pop    %rbp
 bfc:	41 5c                	pop    %r12
 bfe:	41 5d                	pop    %r13
 c00:	41 5e                	pop    %r14
 c02:	41 5f                	pop    %r15
 c04:	c3                   	retq   
 c05:	90                   	nop
 c06:	66 2e 0f 1f 84 00 00 	nopw   %cs:0x0(%rax,%rax,1)
 c0d:	00 00 00 

0000000000000c10 <__libc_csu_fini>:
 c10:	f3 c3                	repz retq 

Disassembly of section .fini:

0000000000000c14 <_fini>:
 c14:	48 83 ec 08          	sub    $0x8,%rsp
 c18:	48 83 c4 08          	add    $0x8,%rsp
 c1c:	c3                   	retq   
